target datalayout = "e-m:e-p270:32:32-p271:32:32-p272:64:64-i64:64-i128:128-f80:128-n8:16:32:64-S128"
target triple = "x86_64-pc-linux-gnu"

@.str.28 = private unnamed_addr constant [19 x i8] c"extara is %s (%d)\0A\00", align 1

; Function Attrs: mustprogress uwtable
define internal void @_ZL9readbeOnePvjP8_IO_FILE(ptr noundef %0, i32 noundef %1, ptr noundef %2) #5 {
  %4 = alloca ptr, align 8
  %5 = alloca i32, align 4
  %6 = alloca ptr, align 8
  %7 = alloca ptr, align 8
  %8 = alloca i32, align 4
  store ptr %0, ptr %4, align 8
  store i32 %1, ptr %5, align 4
  store ptr %2, ptr %6, align 8
  %9 = load i32, ptr %5, align 4
  %10 = zext i32 %9 to i64
  %11 = call noalias noundef nonnull ptr @_Znam(i64 noundef %10) #17
  store ptr %11, ptr %7, align 8
  %12 = load ptr, ptr %7, align 8
  %13 = load i32, ptr %5, align 4
  %14 = zext i32 %13 to i64
  %15 = load ptr, ptr %6, align 8
  %16 = call i64 @fread(ptr noundef %12, i64 noundef %14, i64 noundef 1, ptr noundef %15)
  store i32 0, ptr %8, align 4
  br label %17

17:                                               ; preds = %33, %3
  %18 = load i32, ptr %8, align 4
  %19 = load i32, ptr %5, align 4
  %20 = icmp ult i32 %18, %19
  br i1 %20, label %21, label %36

21:                                               ; preds = %17
  %22 = load ptr, ptr %4, align 8
  %23 = load i32, ptr %8, align 4
  %24 = zext i32 %23 to i64
  %25 = getelementptr inbounds i8, ptr %22, i64 %24
  %26 = load ptr, ptr %7, align 8
  %27 = load i32, ptr %5, align 4
  %28 = sub i32 %27, 1
  %29 = load i32, ptr %8, align 4
  %30 = sub i32 %28, %29
  %31 = zext i32 %30 to i64
  %32 = getelementptr inbounds i8, ptr %26, i64 %31
  call void @llvm.memcpy.p0.p0.i64(ptr align 1 %25, ptr align 1 %32, i64 1, i1 false)
  br label %33

33:                                               ; preds = %21
  %34 = load i32, ptr %8, align 4
  %35 = add i32 %34, 1
  store i32 %35, ptr %8, align 4
  br label %17, !llvm.loop !84

36:                                               ; preds = %17
  %37 = load ptr, ptr %7, align 8
  %38 = icmp eq ptr %37, null
  br i1 %38, label %40, label %39

39:                                               ; preds = %36
  call void @_ZdaPv(ptr noundef %37) #18
  br label %40

40:                                               ; preds = %39, %36
  ret void
}

; Function Attrs: mustprogress uwtable
define noundef i64 @_Z10readOtherEPvjjP8_IO_FILE(ptr noundef %0, i32 noundef %1, i32 noundef %2, ptr noundef %3) #5 {
  %5 = alloca ptr, align 8
  %6 = alloca i32, align 4
  %7 = alloca i32, align 4
  %8 = alloca ptr, align 8
  %9 = alloca i32, align 4
  store ptr %0, ptr %5, align 8
  store i32 %1, ptr %6, align 4
  store i32 %2, ptr %7, align 4
  store ptr %3, ptr %8, align 8
  store i32 0, ptr %9, align 4
  br label %10

10:                                               ; preds = %23, %4
  %11 = load i32, ptr %9, align 4
  %12 = load i32, ptr %7, align 4
  %13 = icmp ult i32 %11, %12
  br i1 %13, label %14, label %26

14:                                               ; preds = %10
  %15 = load ptr, ptr %5, align 8
  %16 = load i32, ptr %9, align 4
  %17 = load i32, ptr %6, align 4
  %18 = mul i32 %16, %17
  %19 = zext i32 %18 to i64
  %20 = getelementptr inbounds i8, ptr %15, i64 %19
  %21 = load i32, ptr %6, align 4
  %22 = load ptr, ptr %8, align 8
  call void @_ZL9readbeOnePvjP8_IO_FILE(ptr noundef %20, i32 noundef %21, ptr noundef %22)
  br label %23

23:                                               ; preds = %14
  %24 = load i32, ptr %9, align 4
  %25 = add i32 %24, 1
  store i32 %25, ptr %9, align 4
  br label %10, !llvm.loop !83

26:                                               ; preds = %10
  %27 = load i32, ptr %7, align 4
  %28 = load i32, ptr %6, align 4
  %29 = mul i32 %27, %28
  %30 = zext i32 %29 to i64
  ret i64 %30
}

; Function Attrs: mustprogress uwtable
define noundef i32 @_Z10readHeaderP8_IO_FILERbRiS2_(ptr noundef %0, ptr noundef nonnull align 1 dereferenceable(1) %1, ptr noundef nonnull align 4 dereferenceable(4) %2, ptr noundef nonnull align 4 dereferenceable(4) %3) #5 {
  %5 = alloca i32, align 4
  %6 = alloca ptr, align 8
  %7 = alloca ptr, align 8
  %8 = alloca ptr, align 8
  %9 = alloca ptr, align 8
  %10 = alloca i16, align 2
  %11 = alloca [4 x i8], align 1
  store ptr %0, ptr %6, align 8
  store ptr %1, ptr %7, align 8
  store ptr %2, ptr %8, align 8
  store ptr %3, ptr %9, align 8
  %12 = load ptr, ptr %6, align 8
  %13 = call i64 @fread(ptr noundef %10, i64 noundef 2, i64 noundef 1, ptr noundef %12)
  %14 = load i16, ptr %10, align 2
  %15 = zext i16 %14 to i32
  %16 = icmp eq i32 %15, 19525
  br i1 %16, label %21, label %17

17:                                               ; preds = %4
  %18 = load i16, ptr %10, align 2
  %19 = zext i16 %18 to i32
  %20 = icmp eq i32 %19, 17730
  br i1 %20, label %21, label %23

21:                                               ; preds = %17, %4
  %22 = load ptr, ptr %7, align 8
  store i8 1, ptr %22, align 1
  br label %35

23:                                               ; preds = %17
  %24 = load i16, ptr %10, align 2
  %25 = zext i16 %24 to i32
  %26 = icmp eq i32 %25, 17740
  br i1 %26, label %31, label %27

27:                                               ; preds = %23
  %28 = load i16, ptr %10, align 2
  %29 = zext i16 %28 to i32
  %30 = icmp eq i32 %29, 16965
  br i1 %30, label %31, label %33

31:                                               ; preds = %27, %23
  %32 = load ptr, ptr %7, align 8
  store i8 0, ptr %32, align 1
  br label %34

33:                                               ; preds = %27
  store i32 1, ptr %5, align 4
  br label %61

34:                                               ; preds = %31
  br label %35

35:                                               ; preds = %34, %21
  %36 = load ptr, ptr %7, align 8
  %37 = load i8, ptr %36, align 1
  %38 = trunc i8 %37 to i1
  br i1 %38, label %39, label %46

39:                                               ; preds = %35
  %40 = load ptr, ptr %8, align 8
  %41 = load ptr, ptr %6, align 8
  %42 = call noundef i64 @_Z10readOtherEPvjjP8_IO_FILE(ptr noundef %40, i32 noundef 4, i32 noundef 1, ptr noundef %41)
  %43 = load ptr, ptr %9, align 8
  %44 = load ptr, ptr %6, align 8
  %45 = call noundef i64 @_Z10readOtherEPvjjP8_IO_FILE(ptr noundef %43, i32 noundef 4, i32 noundef 1, ptr noundef %44)
  br label %53

46:                                               ; preds = %35
  %47 = load ptr, ptr %8, align 8
  %48 = load ptr, ptr %6, align 8
  %49 = call i64 @fread(ptr noundef %47, i64 noundef 4, i64 noundef 1, ptr noundef %48)
  %50 = load ptr, ptr %9, align 8
  %51 = load ptr, ptr %6, align 8
  %52 = call i64 @fread(ptr noundef %50, i64 noundef 4, i64 noundef 1, ptr noundef %51)
  br label %53

53:                                               ; preds = %46, %39
  %54 = getelementptr inbounds [4 x i8], ptr %11, i64 0, i64 0
  %55 = load ptr, ptr %6, align 8
  %56 = call i64 @fread(ptr noundef %54, i64 noundef 1, i64 noundef 4, ptr noundef %55)
  %57 = getelementptr inbounds [4 x i8], ptr %11, i64 0, i64 0
  %58 = getelementptr inbounds [4 x i8], ptr %11, i64 0, i64 0
  %59 = load i32, ptr %58, align 1
  %60 = call i32 (ptr, ...) @printf(ptr noundef @.str.28, ptr noundef %57, i32 noundef %59)
  store i32 0, ptr %5, align 4
  br label %61

61:                                               ; preds = %53, %33
  %62 = load i32, ptr %5, align 4
  ret i32 %62
}