; Function Attrs: mustprogress uwtable
define noundef i32 @_Z10readHeaderP8_IO_FILERbRiS2_(ptr nocapture noundef %0, ptr nocapture noundef nonnull writeonly align 1 dereferenceable(1) %1, ptr nocapture noundef nonnull align 4 dereferenceable(4) %2, ptr nocapture noundef nonnull align 4 dereferenceable(4) %3) local_unnamed_addr #9 {
  %5 = alloca i16, align 2
  %6 = alloca [4 x i8], align 4
  %7 = call i64 @fread(ptr noundef nonnull %5, i64 noundef 2, i64 noundef 1, ptr noundef %0)
  %8 = load i16, ptr %5, align 2
  switch i16 %8, label %28 [
    i16 19525, label %9
    i16 17730, label %9
    i16 17740, label %.fold.split
    i16 16965, label %.fold.split
  ]

.fold.split:                                      ; preds = %4, %4
  br label %9

9:                                                ; preds = %4, %4, %.fold.split
  %storemerge = phi i8 [ 1, %4 ], [ 1, %4 ], [ 0, %.fold.split ]
  store i8 %storemerge, ptr %1, align 1
  switch i16 %8, label %22 [
    i16 19525, label %.lr.ph.i.preheader.i
    i16 17730, label %.lr.ph.i.preheader.i
  ]

.lr.ph.i.preheader.i:                             ; preds = %9, %9
  %10 = tail call noalias noundef nonnull dereferenceable(4) ptr @_Znam(i64 noundef 4) #24
  %11 = tail call i64 @fread(ptr noundef nonnull %10, i64 noundef 4, i64 noundef 1, ptr noundef %0)
  br label %.lr.ph.i.i

.lr.ph.i.i:                                       ; preds = %.lr.ph.i.i, %.lr.ph.i.preheader.i
  %indvars.iv.i.i = phi i64 [ %indvars.iv.next.i.i, %.lr.ph.i.i ], [ 0, %.lr.ph.i.preheader.i ]
  %12 = getelementptr inbounds i8, ptr %2, i64 %indvars.iv.i.i
  %13 = sub nuw nsw i64 3, %indvars.iv.i.i
  %14 = getelementptr inbounds i8, ptr %10, i64 %13
  %15 = load i8, ptr %14, align 1
  store i8 %15, ptr %12, align 1
  %indvars.iv.next.i.i = add nuw nsw i64 %indvars.iv.i.i, 1
  %exitcond.not.i.i = icmp eq i64 %indvars.iv.next.i.i, 4
  br i1 %exitcond.not.i.i, label %_ZL9readbeOnePvjP8_IO_FILE.exit.loopexit.i, label %.lr.ph.i.i, !llvm.loop !12

_ZL9readbeOnePvjP8_IO_FILE.exit.loopexit.i:       ; preds = %.lr.ph.i.i
  tail call void @_ZdaPv(ptr noundef nonnull %10) #20
  %16 = tail call noalias noundef nonnull dereferenceable(4) ptr @_Znam(i64 noundef 4) #24
  %17 = tail call i64 @fread(ptr noundef nonnull %16, i64 noundef 4, i64 noundef 1, ptr noundef %0)
  br label %.lr.ph.i.i23

.lr.ph.i.i23:                                     ; preds = %.lr.ph.i.i23, %_ZL9readbeOnePvjP8_IO_FILE.exit.loopexit.i
  %indvars.iv.i.i24 = phi i64 [ %indvars.iv.next.i.i25, %.lr.ph.i.i23 ], [ 0, %_ZL9readbeOnePvjP8_IO_FILE.exit.loopexit.i ]
  %18 = getelementptr inbounds i8, ptr %3, i64 %indvars.iv.i.i24
  %19 = sub nuw nsw i64 3, %indvars.iv.i.i24
  %20 = getelementptr inbounds i8, ptr %16, i64 %19
  %21 = load i8, ptr %20, align 1
  store i8 %21, ptr %18, align 1
  %indvars.iv.next.i.i25 = add nuw nsw i64 %indvars.iv.i.i24, 1
  %exitcond.not.i.i26 = icmp eq i64 %indvars.iv.next.i.i25, 4
  br i1 %exitcond.not.i.i26, label %_ZL9readbeOnePvjP8_IO_FILE.exit.loopexit.i27, label %.lr.ph.i.i23, !llvm.loop !12

_ZL9readbeOnePvjP8_IO_FILE.exit.loopexit.i27:     ; preds = %.lr.ph.i.i23
  tail call void @_ZdaPv(ptr noundef nonnull %16) #20
  br label %_Z10readOtherEPvjjP8_IO_FILE.exit30

22:                                               ; preds = %9
  %23 = tail call i64 @fread(ptr noundef nonnull %2, i64 noundef 4, i64 noundef 1, ptr noundef %0)
  %24 = tail call i64 @fread(ptr noundef nonnull %3, i64 noundef 4, i64 noundef 1, ptr noundef %0)
  br label %_Z10readOtherEPvjjP8_IO_FILE.exit30

_Z10readOtherEPvjjP8_IO_FILE.exit30:              ; preds = %_ZL9readbeOnePvjP8_IO_FILE.exit.loopexit.i27, %22
  %25 = call i64 @fread(ptr noundef nonnull %6, i64 noundef 1, i64 noundef 4, ptr noundef %0)
  %26 = load i32, ptr %6, align 4
  %27 = call i32 (ptr, ...) @printf(ptr noundef nonnull dereferenceable(1) @.str.28, ptr noundef nonnull %6, i32 noundef %26)
  br label %28

28:                                               ; preds = %4, %_Z10readOtherEPvjjP8_IO_FILE.exit30
  %.0 = phi i32 [ 0, %_Z10readOtherEPvjjP8_IO_FILE.exit30 ], [ 1, %4 ]
  ret i32 %.0
}